(dp0
S'mx.monad.com'
p1
(dp2
S'/home/jces/Storage/Dev/pn0gstr0m/HAXE3/Export/linux/cpp/bin/_\x80F\xc6\x88\x19H\x08\xf0\xb5\xca\xaf'
p3
(dp4
S'oldest-timestamp'
p5
I1397879531
sS'exe'
p6
S'False'
p7
sS'last-update-sec'
p8
I1406636012
ssS'/home/jces/Storage/Dev/pn0gstr0m/HAXE3/Export/linux/cpp/bin/_\x80F\xc6\x88\x19H\x08\xf0\xb5\xca\xaf_'
p9
(dp10
S'oldest-timestamp'
p11
NsS'exe'
p12
VFalse
p13
sS'last-update-sec'
p14
I1407581749
sss.